; Function Attrs: mustprogress nofree norecurse nounwind willreturn memory(readwrite, inaccessiblemem: none) uwtable
define void @_ZNK32pxrInternal_v0_24__pxrReserved__14HdReprSelector13CompositeOverERKS0_(ptr dead_on_unwind noalias nocapture writable writeonly sret(%"class.pxrInternal_v0_24__pxrReserved__::HdReprSelector") align 8 %0, ptr nocapture noundef nonnull readonly align 8 dereferenceable(24) %1, ptr nocapture noundef nonnull readonly align 8 dereferenceable(24) %2) local_unnamed_addr #4 align 2 personality ptr @__gxx_personality_v0 {
  %.val = load ptr, ptr %1, align 8
  %.not = icmp eq ptr %.val, null
  %4 = getelementptr inbounds nuw i8, ptr %1, i64 8
  %.val4 = load ptr, ptr %4, align 8
  %.not6 = icmp eq ptr %.val4, null
  %5 = getelementptr inbounds nuw i8, ptr %2, i64 8
  %6 = getelementptr inbounds nuw i8, ptr %1, i64 16
  %.val5 = load ptr, ptr %6, align 8
  %.not7 = icmp eq ptr %.val5, null
  %7 = getelementptr inbounds nuw i8, ptr %2, i64 16
  %.val8 = load i64, ptr %2, align 8
  %8 = ptrtoint ptr %.val to i64
  %9 = select i1 %.not, i64 %.val8, i64 %8
  store i64 %9, ptr %0, align 8
  %10 = and i64 %9, 7
  %.not.i.i.i = icmp eq i64 %10, 0
  br i1 %.not.i.i.i, label %_ZN32pxrInternal_v0_24__pxrReserved__7TfTokenC2ERKS0_.exit.i, label %11

11:                                               ; preds = %3
  %12 = and i64 %9, -8
  %13 = inttoptr i64 %12 to ptr
  %14 = atomicrmw add ptr %13, i32 2 monotonic, align 4
  %15 = and i32 %14, 1
  %.not1.i.i.i = icmp eq i32 %15, 0
  br i1 %.not1.i.i.i, label %16, label %_ZN32pxrInternal_v0_24__pxrReserved__7TfTokenC2ERKS0_.exit.i

16:                                               ; preds = %11
  store ptr %13, ptr %0, align 8
  br label %_ZN32pxrInternal_v0_24__pxrReserved__7TfTokenC2ERKS0_.exit.i

_ZN32pxrInternal_v0_24__pxrReserved__7TfTokenC2ERKS0_.exit.i: ; preds = %16, %11, %3
  %17 = getelementptr inbounds nuw i8, ptr %0, i64 8
  %.val10 = load i64, ptr %5, align 8
  %.val11 = load i64, ptr %4, align 8
  %18 = select i1 %.not6, i64 %.val10, i64 %.val11
  store i64 %18, ptr %17, align 8
  %19 = and i64 %18, 7
  %.not.i.i4.i = icmp eq i64 %19, 0
  br i1 %.not.i.i4.i, label %_ZN32pxrInternal_v0_24__pxrReserved__7TfTokenC2ERKS0_.exit6.i, label %20

20:                                               ; preds = %_ZN32pxrInternal_v0_24__pxrReserved__7TfTokenC2ERKS0_.exit.i
  %21 = and i64 %18, -8
  %22 = inttoptr i64 %21 to ptr
  %23 = atomicrmw add ptr %22, i32 2 monotonic, align 4
  %24 = and i32 %23, 1
  %.not1.i.i5.i = icmp eq i32 %24, 0
  br i1 %.not1.i.i5.i, label %25, label %_ZN32pxrInternal_v0_24__pxrReserved__7TfTokenC2ERKS0_.exit6.i

25:                                               ; preds = %20
  store ptr %22, ptr %17, align 8
  br label %_ZN32pxrInternal_v0_24__pxrReserved__7TfTokenC2ERKS0_.exit6.i

_ZN32pxrInternal_v0_24__pxrReserved__7TfTokenC2ERKS0_.exit6.i: ; preds = %25, %20, %_ZN32pxrInternal_v0_24__pxrReserved__7TfTokenC2ERKS0_.exit.i
  %26 = getelementptr inbounds nuw i8, ptr %0, i64 16
  %.val12 = load i64, ptr %7, align 8
  %.val13 = load i64, ptr %6, align 8
  %27 = select i1 %.not7, i64 %.val12, i64 %.val13
  store i64 %27, ptr %26, align 8
  %28 = and i64 %27, 7
  %.not.i.i7.i = icmp eq i64 %28, 0
  br i1 %.not.i.i7.i, label %_ZN32pxrInternal_v0_24__pxrReserved__14HdReprSelectorC2ERKNS_7TfTokenES3_S3_.exit, label %29

29:                                               ; preds = %_ZN32pxrInternal_v0_24__pxrReserved__7TfTokenC2ERKS0_.exit6.i
  %30 = and i64 %27, -8
  %31 = inttoptr i64 %30 to ptr
  %32 = atomicrmw add ptr %31, i32 2 monotonic, align 4
  %33 = and i32 %32, 1
  %.not1.i.i8.i = icmp eq i32 %33, 0
  br i1 %.not1.i.i8.i, label %34, label %_ZN32pxrInternal_v0_24__pxrReserved__14HdReprSelectorC2ERKNS_7TfTokenES3_S3_.exit

34:                                               ; preds = %29
  store ptr %31, ptr %26, align 8
  br label %_ZN32pxrInternal_v0_24__pxrReserved__14HdReprSelectorC2ERKNS_7TfTokenES3_S3_.exit

_ZN32pxrInternal_v0_24__pxrReserved__14HdReprSelectorC2ERKNS_7TfTokenES3_S3_.exit: ; preds = %_ZN32pxrInternal_v0_24__pxrReserved__7TfTokenC2ERKS0_.exit6.i, %29, %34
  ret void
}